#include <math.h>
#include <stdio.h>
#include <stdlib.h>
#include <string.h>

int main()
{
	int n,i;
	scanf("%d",&n);
	char d[1000][260],r[1000][260];
    for(i=0;i<n;i++){
		scanf("%s",d[i]);
	}
	int len;
	for(i=0;i<n;i++){
		len=strlen(d[i]);
		for(int j=0;j<len;j++){
			if(d[i][j]=='A')
				r[i][j]='T';
			else if(d[i][j]=='T')
				r[i][j]='A';
			else if(d[i][j]=='C')
				r[i][j]='G';
			else if(d[i][j]=='G')
				r[i][j]='C';
		}
	}
	for(i=0;i<n;i++){
		len=strlen(d[i]);
		for(int j=0;j<len;j++){
		    printf("%c",r[i][j]);
		}	printf("\n");
	}
	return 0;
}

